; Function Attrs: mustprogress nofree norecurse nosync nounwind willreturn memory(read, inaccessiblemem: none) uwtable
define i32 @H5HF_get_dtable_max_drows_test(ptr noundef readonly captures(none) %0) local_unnamed_addr #4 {
  %2 = load i8, ptr @H5HF_init_g, align 1, !tbaa !3, !range !7, !noundef !8
  %3 = trunc nuw i8 %2 to i1
  %4 = load i8, ptr @H5_libterm_g, align 1, !range !7
  %5 = trunc nuw i8 %4 to i1
  %6 = xor i1 %5, true
  %7 = select i1 %3, i1 true, i1 %6
  br i1 %7, label %8, label %12, !prof !9

8:                                                ; preds = %1
  %9 = load ptr, ptr %0, align 8, !tbaa !10
  %10 = getelementptr inbounds nuw i8, ptr %9, i64 312
  %11 = load i32, ptr %10, align 8, !tbaa !65
  br label %12

12:                                               ; preds = %8, %1
  %.0 = phi i32 [ %11, %8 ], [ 0, %1 ]
  ret i32 %.0
}